AARCH64 GAS  /tmp/cckCR1hU.s 			page 1


   1              		.arch armv8-a
   2              		.file	"Hello.c"
   3              		.text
   4              	.Ltext0:
   5              		.file 0 "/home/karl/Projects/Road_to_C/Hello" "Hello.c"
   6              		.section	.rodata
   7              		.align	3
   8              	.LC0:
   9 0000 48656C6C 		.string	"Hello, World! "
   9      6F2C2057 
   9      6F726C64 
   9      212000
  10              		.text
  11              		.align	2
  12              		.global	main
  13              		.type	main, %function
  14              	main:
  15              	.LFB0:
  16              		.file 1 "Hello.c"
   1:Hello.c       **** #include <stdio.h>
   2:Hello.c       **** 
   3:Hello.c       **** int main() {
  17              		.loc 1 3 12
  18              		.cfi_startproc
  19 0000 FD7BBFA9 		stp	x29, x30, [sp, -16]!
  20              		.cfi_def_cfa_offset 16
  21              		.cfi_offset 29, -16
  22              		.cfi_offset 30, -8
  23 0004 FD030091 		mov	x29, sp
   4:Hello.c       **** 	printf( "Hello, World! \n" );
  24              		.loc 1 4 2
  25 0008 00000090 		adrp	x0, .LC0
  26 000c 00000091 		add	x0, x0, :lo12:.LC0
  27 0010 00000094 		bl	puts
   5:Hello.c       **** 	return 0;
  28              		.loc 1 5 9
  29 0014 00008052 		mov	w0, 0
   6:Hello.c       **** }
  30              		.loc 1 6 1
  31 0018 FD7BC1A8 		ldp	x29, x30, [sp], 16
  32              		.cfi_restore 30
  33              		.cfi_restore 29
  34              		.cfi_def_cfa_offset 0
  35 001c C0035FD6 		ret
  36              		.cfi_endproc
  37              	.LFE0:
  38              		.size	main, .-main
  39              	.Letext0:
 212 002c 2F686F6D 		.section	.note.GNU-stack,"",@progbits
 212      652F6B61 
 212      726C2F50 
 212      726F6A65 
 212      6374732F 
AARCH64 GAS  /tmp/cckCR1hU.s 			page 6

